TN:
SF:/app/Gate.cpp
FN:3,_ZN4GateC2E8GateType
FN:5,_ZN4GateC2Ev
FN:7,_ZN4Gate8evaluateEv
FN:65,_ZN4Gate8addInputEPS_i
FN:85,_ZN4Gate9getSignalEv
FN:89,_ZN4Gate11getGateTypeEv
FN:93,_ZN4Gate9getInput1Ev
FN:97,_ZN4Gate9getInput2Ev
FN:102,_ZN4Gate9setSignalEb
FN:106,_ZN4Gate9addOutputEPS_
FN:112,_ZN4Gate13deleteOutputsEv
FN:120,_ZN4Gate11removeInputEPS_
FN:137,_ZN4Gate12removeOutputEPS_
FN:145,_ZN4Gate15removeAllInputsEv
FN:156,_ZN4Gate5resetEv
FN:160,_ZN4Gate13disconnectAllEv
FNDA:4,_ZN4Gate12removeOutputEPS_
FNDA:32,_ZN4Gate8evaluateEv
FNDA:28,_ZN4Gate8addInputEPS_i
FNDA:6,_ZN4Gate11removeInputEPS_
FNDA:7,_ZN4Gate9getInput1Ev
FNDA:55,_ZN4Gate9setSignalEb
FNDA:24,_ZN4Gate9addOutputEPS_
FNDA:1,_ZN4Gate15removeAllInputsEv
FNDA:1,_ZN4Gate13deleteOutputsEv
FNDA:2,_ZN4GateC2Ev
FNDA:87,_ZN4Gate9getSignalEv
FNDA:1,_ZN4Gate5resetEv
FNDA:56,_ZN4GateC2E8GateType
FNDA:4,_ZN4Gate9getInput2Ev
FNDA:1,_ZN4Gate13disconnectAllEv
FNDA:13,_ZN4Gate11getGateTypeEv
FNF:16
FNH:16
DA:3,56
DA:5,2
DA:7,32
DA:9,32
DA:10,2
DA:12,30
DA:13,30
DA:14,28
DA:15,26
DA:16,2
DA:21,28
DA:22,28
DA:25,28
DA:26,2
DA:27,2
DA:28,2
DA:30,2
DA:31,2
DA:32,2
DA:34,4
DA:35,4
DA:36,4
DA:38,4
DA:39,4
DA:40,4
DA:42,4
DA:43,4
DA:44,4
DA:46,4
DA:47,4
DA:48,4
DA:50,4
DA:51,4
DA:52,4
DA:54,4
DA:55,4
DA:56,4
DA:58,0
DA:59,0
DA:62,28
DA:65,28
DA:66,28
DA:68,4
DA:70,24
DA:71,15
DA:72,15
DA:73,15
DA:77,9
DA:78,9
DA:79,9
DA:80,9
DA:82,0
DA:85,87
DA:86,87
DA:89,13
DA:90,13
DA:93,7
DA:94,7
DA:97,4
DA:98,4
DA:102,55
DA:103,55
DA:104,55
DA:106,24
DA:107,24
DA:108,24
DA:110,24
DA:112,1
DA:114,2
DA:115,1
DA:117,1
DA:118,1
DA:120,6
DA:121,6
DA:122,4
DA:123,4
DA:124,3
DA:128,6
DA:129,2
DA:130,2
DA:131,1
DA:135,6
DA:137,4
DA:138,4
DA:139,1
DA:141,3
DA:142,3
DA:145,1
DA:146,1
DA:147,1
DA:148,1
DA:150,1
DA:151,1
DA:152,1
DA:154,1
DA:156,1
DA:157,1
DA:158,1
DA:160,1
DA:161,1
DA:162,1
DA:163,1
LF:102
LH:99
end_of_record
TN:
SF:/app/tests/main_test.cpp
FN:4,main
FNDA:2,main
FNF:1
FNH:1
DA:4,2
DA:5,2
DA:6,2
DA:7,2
DA:8,2
LF:5
LH:5
end_of_record
TN:
SF:/app/tests/test_comprehensive.cpp
FN:6,_ZN8GateTest5SetUpEv
FN:7,_ZN8GateTest8TearDownEv
FN:11,_ZN31GateTest_BasicGateCreation_TestD2Ev
FN:11,_ZN31GateTest_BasicGateCreation_Test8TestBodyEv
FN:11,_ZN31GateTest_BasicGateCreation_TestD0Ev
FN:11,_ZN31GateTest_BasicGateCreation_TestC2Ev
FN:16,_ZN30GateTest_GateTypeCreation_TestD2Ev
FN:16,_ZN30GateTest_GateTypeCreation_TestC2Ev
FN:16,_ZN30GateTest_GateTypeCreation_TestD0Ev
FN:16,_ZN30GateTest_GateTypeCreation_Test8TestBodyEv
FN:22,_ZN26GateTest_AllGateTypes_Test8TestBodyEv
FN:22,_ZN26GateTest_AllGateTypes_TestD0Ev
FN:22,_ZN26GateTest_AllGateTypes_TestD2Ev
FN:22,_ZN26GateTest_AllGateTypes_TestC2Ev
FN:45,_ZN29GateTest_SetAndGetSignal_TestC2Ev
FN:45,_ZN29GateTest_SetAndGetSignal_Test8TestBodyEv
FN:45,_ZN29GateTest_SetAndGetSignal_TestD2Ev
FN:45,_ZN29GateTest_SetAndGetSignal_TestD0Ev
FN:56,_ZN25GateTest_ResetSignal_TestC2Ev
FN:56,_ZN25GateTest_ResetSignal_Test8TestBodyEv
FN:56,_ZN25GateTest_ResetSignal_TestD2Ev
FN:56,_ZN25GateTest_ResetSignal_TestD0Ev
FN:66,_ZN27GateTest_AddInputValid_TestD2Ev
FN:66,_ZN27GateTest_AddInputValid_Test8TestBodyEv
FN:66,_ZN27GateTest_AddInputValid_TestC2Ev
FN:66,_ZN27GateTest_AddInputValid_TestD0Ev
FN:78,_ZN29GateTest_AddInputInvalid_Test8TestBodyEv
FN:78,_ZN29GateTest_AddInputInvalid_TestD2Ev
FN:78,_ZN29GateTest_AddInputInvalid_TestD0Ev
FN:78,_ZN29GateTest_AddInputInvalid_TestC2Ev
FN:93,_ZN25GateTest_RemoveInput_Test8TestBodyEv
FN:93,_ZN25GateTest_RemoveInput_TestD2Ev
FN:93,_ZN25GateTest_RemoveInput_TestC2Ev
FN:93,_ZN25GateTest_RemoveInput_TestD0Ev
FN:110,_ZN31GateTest_ANDGateEvaluation_Test8TestBodyEv
FN:110,_ZN31GateTest_ANDGateEvaluation_TestD2Ev
FN:110,_ZN31GateTest_ANDGateEvaluation_TestD0Ev
FN:110,_ZN31GateTest_ANDGateEvaluation_TestC2Ev
FN:136,_ZN30GateTest_ORGateEvaluation_TestD0Ev
FN:136,_ZN30GateTest_ORGateEvaluation_Test8TestBodyEv
FN:136,_ZN30GateTest_ORGateEvaluation_TestD2Ev
FN:136,_ZN30GateTest_ORGateEvaluation_TestC2Ev
FN:161,_ZN31GateTest_NOTGateEvaluation_TestD2Ev
FN:161,_ZN31GateTest_NOTGateEvaluation_Test8TestBodyEv
FN:161,_ZN31GateTest_NOTGateEvaluation_TestC2Ev
FN:161,_ZN31GateTest_NOTGateEvaluation_TestD0Ev
FN:176,_ZN32GateTest_NANDGateEvaluation_Test8TestBodyEv
FN:176,_ZN32GateTest_NANDGateEvaluation_TestD0Ev
FN:176,_ZN32GateTest_NANDGateEvaluation_TestD2Ev
FN:176,_ZN32GateTest_NANDGateEvaluation_TestC2Ev
FN:201,_ZN31GateTest_NORGateEvaluation_TestD2Ev
FN:201,_ZN31GateTest_NORGateEvaluation_TestC2Ev
FN:201,_ZN31GateTest_NORGateEvaluation_TestD0Ev
FN:201,_ZN31GateTest_NORGateEvaluation_Test8TestBodyEv
FN:226,_ZN31GateTest_XORGateEvaluation_TestC2Ev
FN:226,_ZN31GateTest_XORGateEvaluation_TestD0Ev
FN:226,_ZN31GateTest_XORGateEvaluation_Test8TestBodyEv
FN:226,_ZN31GateTest_XORGateEvaluation_TestD2Ev
FN:251,_ZN32GateTest_XNORGateEvaluation_TestC2Ev
FN:251,_ZN32GateTest_XNORGateEvaluation_Test8TestBodyEv
FN:251,_ZN32GateTest_XNORGateEvaluation_TestD2Ev
FN:251,_ZN32GateTest_XNORGateEvaluation_TestD0Ev
FN:276,_ZN34GateTest_OutputGateEvaluation_Test8TestBodyEv
FN:276,_ZN34GateTest_OutputGateEvaluation_TestD2Ev
FN:276,_ZN34GateTest_OutputGateEvaluation_TestD0Ev
FN:276,_ZN34GateTest_OutputGateEvaluation_TestC2Ev
FN:292,_ZN39GateTest_EvaluateWithMissingInputs_TestD2Ev
FN:292,_ZN39GateTest_EvaluateWithMissingInputs_TestD0Ev
FN:292,_ZN39GateTest_EvaluateWithMissingInputs_TestC2Ev
FN:292,_ZN39GateTest_EvaluateWithMissingInputs_Test8TestBodyEv
FN:304,_ZN42GateTest_EvaluateInverterWithoutInput_Test8TestBodyEv
FN:304,_ZN42GateTest_EvaluateInverterWithoutInput_TestD2Ev
FN:304,_ZN42GateTest_EvaluateInverterWithoutInput_TestD0Ev
FN:304,_ZN42GateTest_EvaluateInverterWithoutInput_TestC2Ev
FN:309,_ZN40GateTest_EvaluateOutputWithoutInput_TestC2Ev
FN:309,_ZN40GateTest_EvaluateOutputWithoutInput_TestD0Ev
FN:309,_ZN40GateTest_EvaluateOutputWithoutInput_Test8TestBodyEv
FN:309,_ZN40GateTest_EvaluateOutputWithoutInput_TestD2Ev
FN:315,_ZN27GateTest_DisconnectAll_Test8TestBodyEv
FN:315,_ZN27GateTest_DisconnectAll_TestD0Ev
FN:315,_ZN27GateTest_DisconnectAll_TestD2Ev
FN:315,_ZN27GateTest_DisconnectAll_TestC2Ev
FN:332,_ZN26GateTest_RemoveOutput_TestD2Ev
FN:332,_ZN26GateTest_RemoveOutput_Test8TestBodyEv
FN:332,_ZN26GateTest_RemoveOutput_TestC2Ev
FN:332,_ZN26GateTest_RemoveOutput_TestD0Ev
FNDA:1,_ZN40GateTest_EvaluateOutputWithoutInput_Test8TestBodyEv
FNDA:1,_ZN25GateTest_ResetSignal_TestD2Ev
FNDA:1,_ZN32GateTest_NANDGateEvaluation_TestC2Ev
FNDA:1,_ZN34GateTest_OutputGateEvaluation_TestD2Ev
FNDA:1,_ZN30GateTest_ORGateEvaluation_TestD2Ev
FNDA:1,_ZN26GateTest_AllGateTypes_TestD2Ev
FNDA:1,_ZN26GateTest_RemoveOutput_TestD0Ev
FNDA:1,_ZN31GateTest_BasicGateCreation_TestC2Ev
FNDA:1,_ZN32GateTest_XNORGateEvaluation_TestD0Ev
FNDA:1,_ZN32GateTest_XNORGateEvaluation_TestD2Ev
FNDA:1,_ZN25GateTest_RemoveInput_TestD0Ev
FNDA:1,_ZN39GateTest_EvaluateWithMissingInputs_Test8TestBodyEv
FNDA:1,_ZN25GateTest_ResetSignal_Test8TestBodyEv
FNDA:1,_ZN39GateTest_EvaluateWithMissingInputs_TestC2Ev
FNDA:1,_ZN25GateTest_RemoveInput_TestD2Ev
FNDA:1,_ZN25GateTest_RemoveInput_TestC2Ev
FNDA:1,_ZN31GateTest_BasicGateCreation_TestD0Ev
FNDA:1,_ZN29GateTest_SetAndGetSignal_TestD0Ev
FNDA:1,_ZN40GateTest_EvaluateOutputWithoutInput_TestD0Ev
FNDA:1,_ZN30GateTest_ORGateEvaluation_Test8TestBodyEv
FNDA:1,_ZN29GateTest_AddInputInvalid_TestC2Ev
FNDA:1,_ZN27GateTest_AddInputValid_Test8TestBodyEv
FNDA:1,_ZN30GateTest_ORGateEvaluation_TestD0Ev
FNDA:1,_ZN30GateTest_GateTypeCreation_TestD0Ev
FNDA:1,_ZN27GateTest_DisconnectAll_TestD0Ev
FNDA:1,_ZN29GateTest_AddInputInvalid_TestD0Ev
FNDA:1,_ZN29GateTest_SetAndGetSignal_TestD2Ev
FNDA:1,_ZN31GateTest_BasicGateCreation_Test8TestBodyEv
FNDA:1,_ZN27GateTest_DisconnectAll_TestC2Ev
FNDA:1,_ZN27GateTest_AddInputValid_TestD0Ev
FNDA:1,_ZN34GateTest_OutputGateEvaluation_TestC2Ev
FNDA:1,_ZN27GateTest_DisconnectAll_TestD2Ev
FNDA:1,_ZN30GateTest_ORGateEvaluation_TestC2Ev
FNDA:1,_ZN27GateTest_AddInputValid_TestC2Ev
FNDA:1,_ZN34GateTest_OutputGateEvaluation_TestD0Ev
FNDA:1,_ZN31GateTest_ANDGateEvaluation_TestC2Ev
FNDA:21,_ZN8GateTest5SetUpEv
FNDA:1,_ZN31GateTest_NOTGateEvaluation_TestD0Ev
FNDA:1,_ZN26GateTest_AllGateTypes_TestC2Ev
FNDA:1,_ZN31GateTest_ANDGateEvaluation_TestD0Ev
FNDA:1,_ZN42GateTest_EvaluateInverterWithoutInput_TestC2Ev
FNDA:1,_ZN40GateTest_EvaluateOutputWithoutInput_TestD2Ev
FNDA:1,_ZN25GateTest_ResetSignal_TestD0Ev
FNDA:1,_ZN31GateTest_XORGateEvaluation_TestD2Ev
FNDA:1,_ZN30GateTest_GateTypeCreation_Test8TestBodyEv
FNDA:1,_ZN31GateTest_ANDGateEvaluation_TestD2Ev
FNDA:1,_ZN27GateTest_AddInputValid_TestD2Ev
FNDA:1,_ZN31GateTest_BasicGateCreation_TestD2Ev
FNDA:1,_ZN34GateTest_OutputGateEvaluation_Test8TestBodyEv
FNDA:1,_ZN32GateTest_NANDGateEvaluation_TestD0Ev
FNDA:1,_ZN26GateTest_RemoveOutput_Test8TestBodyEv
FNDA:1,_ZN26GateTest_RemoveOutput_TestD2Ev
FNDA:1,_ZN31GateTest_XORGateEvaluation_Test8TestBodyEv
FNDA:1,_ZN40GateTest_EvaluateOutputWithoutInput_TestC2Ev
FNDA:1,_ZN31GateTest_NORGateEvaluation_TestD2Ev
FNDA:1,_ZN26GateTest_AllGateTypes_Test8TestBodyEv
FNDA:1,_ZN31GateTest_NOTGateEvaluation_TestC2Ev
FNDA:1,_ZN32GateTest_XNORGateEvaluation_Test8TestBodyEv
FNDA:1,_ZN25GateTest_ResetSignal_TestC2Ev
FNDA:1,_ZN31GateTest_NOTGateEvaluation_Test8TestBodyEv
FNDA:1,_ZN25GateTest_RemoveInput_Test8TestBodyEv
FNDA:1,_ZN32GateTest_NANDGateEvaluation_Test8TestBodyEv
FNDA:1,_ZN31GateTest_NOTGateEvaluation_TestD2Ev
FNDA:1,_ZN31GateTest_XORGateEvaluation_TestD0Ev
FNDA:1,_ZN32GateTest_XNORGateEvaluation_TestC2Ev
FNDA:1,_ZN39GateTest_EvaluateWithMissingInputs_TestD2Ev
FNDA:1,_ZN29GateTest_SetAndGetSignal_TestC2Ev
FNDA:1,_ZN29GateTest_SetAndGetSignal_Test8TestBodyEv
FNDA:1,_ZN29GateTest_AddInputInvalid_Test8TestBodyEv
FNDA:1,_ZN31GateTest_XORGateEvaluation_TestC2Ev
FNDA:1,_ZN27GateTest_DisconnectAll_Test8TestBodyEv
FNDA:1,_ZN42GateTest_EvaluateInverterWithoutInput_TestD0Ev
FNDA:1,_ZN30GateTest_GateTypeCreation_TestC2Ev
FNDA:1,_ZN42GateTest_EvaluateInverterWithoutInput_TestD2Ev
FNDA:1,_ZN26GateTest_AllGateTypes_TestD0Ev
FNDA:1,_ZN31GateTest_NORGateEvaluation_Test8TestBodyEv
FNDA:1,_ZN32GateTest_NANDGateEvaluation_TestD2Ev
FNDA:1,_ZN31GateTest_NORGateEvaluation_TestD0Ev
FNDA:1,_ZN39GateTest_EvaluateWithMissingInputs_TestD0Ev
FNDA:21,_ZN8GateTest8TearDownEv
FNDA:1,_ZN30GateTest_GateTypeCreation_TestD2Ev
FNDA:1,_ZN31GateTest_NORGateEvaluation_TestC2Ev
FNDA:1,_ZN42GateTest_EvaluateInverterWithoutInput_Test8TestBodyEv
FNDA:1,_ZN26GateTest_RemoveOutput_TestC2Ev
FNDA:1,_ZN31GateTest_ANDGateEvaluation_Test8TestBodyEv
FNDA:1,_ZN29GateTest_AddInputInvalid_TestD2Ev
FNF:86
FNH:86
DA:6,21
DA:7,21
DA:11,4
DA:12,1
DA:13,1
DA:14,1
DA:16,4
DA:17,1
DA:18,1
DA:19,1
DA:20,1
DA:22,4
DA:23,1
DA:24,1
DA:25,1
DA:26,1
DA:27,1
DA:28,1
DA:29,1
DA:30,1
DA:31,1
DA:33,1
DA:34,1
DA:35,1
DA:36,1
DA:37,1
DA:38,1
DA:39,1
DA:40,1
DA:41,1
DA:42,1
DA:45,4
DA:46,1
DA:47,1
DA:49,1
DA:50,1
DA:52,1
DA:53,1
DA:54,1
DA:56,4
DA:57,1
DA:58,1
DA:59,1
DA:61,1
DA:62,1
DA:63,1
DA:66,4
DA:67,1
DA:68,1
DA:69,1
DA:71,1
DA:72,1
DA:74,1
DA:75,1
DA:76,1
DA:78,4
DA:79,1
DA:80,1
DA:83,1
DA:84,1
DA:87,1
DA:90,1
DA:91,1
DA:93,4
DA:94,1
DA:95,1
DA:96,1
DA:98,1
DA:99,1
DA:101,1
DA:102,1
DA:103,1
DA:105,1
DA:106,1
DA:107,1
DA:110,4
DA:111,1
DA:112,1
DA:113,1
DA:115,1
DA:116,1
DA:119,1
DA:120,1
DA:121,1
DA:123,1
DA:124,1
DA:125,1
DA:127,1
DA:128,1
DA:129,1
DA:131,1
DA:132,1
DA:133,1
DA:134,1
DA:136,4
DA:137,1
DA:138,1
DA:139,1
DA:141,1
DA:142,1
DA:144,1
DA:145,1
DA:146,1
DA:148,1
DA:149,1
DA:150,1
DA:152,1
DA:153,1
DA:154,1
DA:156,1
DA:157,1
DA:158,1
DA:159,1
DA:161,4
DA:162,1
DA:163,1
DA:165,1
DA:167,1
DA:168,1
DA:169,1
DA:171,1
DA:172,1
DA:173,1
DA:174,1
DA:176,4
DA:177,1
DA:178,1
DA:179,1
DA:181,1
DA:182,1
DA:184,1
DA:185,1
DA:186,1
DA:188,1
DA:189,1
DA:190,1
DA:192,1
DA:193,1
DA:194,1
DA:196,1
DA:197,1
DA:198,1
DA:199,1
DA:201,4
DA:202,1
DA:203,1
DA:204,1
DA:206,1
DA:207,1
DA:209,1
DA:210,1
DA:211,1
DA:213,1
DA:214,1
DA:215,1
DA:217,1
DA:218,1
DA:219,1
DA:221,1
DA:222,1
DA:223,1
DA:224,1
DA:226,4
DA:227,1
DA:228,1
DA:229,1
DA:231,1
DA:232,1
DA:234,1
DA:235,1
DA:236,1
DA:238,1
DA:239,1
DA:240,1
DA:242,1
DA:243,1
DA:244,1
DA:246,1
DA:247,1
DA:248,1
DA:249,1
DA:251,4
DA:252,1
DA:253,1
DA:254,1
DA:256,1
DA:257,1
DA:259,1
DA:260,1
DA:261,1
DA:263,1
DA:264,1
DA:265,1
DA:267,1
DA:268,1
DA:269,1
DA:271,1
DA:272,1
DA:273,1
DA:274,1
DA:276,4
DA:277,1
DA:278,1
DA:280,1
DA:282,1
DA:283,1
DA:284,1
DA:286,1
DA:287,1
DA:288,1
DA:289,1
DA:292,4
DA:293,1
DA:294,1
DA:297,1
DA:300,1
DA:301,1
DA:302,1
DA:304,4
DA:305,1
DA:306,1
DA:307,1
DA:309,4
DA:310,1
DA:311,1
DA:312,1
DA:315,4
DA:316,1
DA:317,1
DA:318,1
DA:319,1
DA:321,1
DA:322,1
DA:323,1
DA:325,1
DA:327,1
DA:328,1
DA:329,1
DA:330,1
DA:332,4
DA:333,1
DA:334,1
DA:335,1
DA:337,1
DA:338,1
DA:340,1
DA:341,1
DA:342,1
DA:345,1
DA:346,1
DA:347,1
LF:251
LH:251
end_of_record
TN:
SF:/app/tests/test_simple.cpp
FN:6,_ZN10SimpleTest5SetUpEv
FN:7,_ZN10SimpleTest8TearDownEv
FN:10,_ZN33SimpleTest_BasicGateCreation_TestD0Ev
FN:10,_ZN33SimpleTest_BasicGateCreation_TestC2Ev
FN:10,_ZN33SimpleTest_BasicGateCreation_Test8TestBodyEv
FN:10,_ZN33SimpleTest_BasicGateCreation_TestD2Ev
FN:15,_ZN32SimpleTest_GateTypeCreation_TestD0Ev
FN:15,_ZN32SimpleTest_GateTypeCreation_Test8TestBodyEv
FN:15,_ZN32SimpleTest_GateTypeCreation_TestD2Ev
FN:15,_ZN32SimpleTest_GateTypeCreation_TestC2Ev
FN:20,_ZN34SimpleTest_DifferentGateTypes_TestD2Ev
FN:20,_ZN34SimpleTest_DifferentGateTypes_Test8TestBodyEv
FN:20,_ZN34SimpleTest_DifferentGateTypes_TestC2Ev
FN:20,_ZN34SimpleTest_DifferentGateTypes_TestD0Ev
FNDA:1,_ZN34SimpleTest_DifferentGateTypes_TestD0Ev
FNDA:1,_ZN32SimpleTest_GateTypeCreation_TestC2Ev
FNDA:1,_ZN33SimpleTest_BasicGateCreation_TestC2Ev
FNDA:1,_ZN33SimpleTest_BasicGateCreation_TestD2Ev
FNDA:1,_ZN33SimpleTest_BasicGateCreation_Test8TestBodyEv
FNDA:1,_ZN34SimpleTest_DifferentGateTypes_TestC2Ev
FNDA:3,_ZN10SimpleTest8TearDownEv
FNDA:1,_ZN32SimpleTest_GateTypeCreation_TestD2Ev
FNDA:1,_ZN33SimpleTest_BasicGateCreation_TestD0Ev
FNDA:1,_ZN34SimpleTest_DifferentGateTypes_Test8TestBodyEv
FNDA:1,_ZN32SimpleTest_GateTypeCreation_TestD0Ev
FNDA:3,_ZN10SimpleTest5SetUpEv
FNDA:1,_ZN32SimpleTest_GateTypeCreation_Test8TestBodyEv
FNDA:1,_ZN34SimpleTest_DifferentGateTypes_TestD2Ev
FNF:14
FNH:14
DA:6,3
DA:7,3
DA:10,4
DA:11,1
DA:12,1
DA:13,1
DA:15,4
DA:16,1
DA:17,1
DA:18,1
DA:20,4
DA:21,1
DA:22,1
DA:24,1
DA:25,1
DA:26,1
LF:16
LH:16
end_of_record
